; Function Attrs: mustprogress nounwind uwtable
define dso_local void @_ZNK4llvm18BlockFrequencyInfo4viewENS_9StringRefE(ptr noundef nonnull align 8 dereferenceable(8) %0, ptr %1, i64 %2) local_unnamed_addr #0 align 2 {
  %4 = alloca ptr, align 8
  %5 = alloca %"class.llvm::Twine", align 8
  %6 = alloca %"class.llvm::Twine", align 8
  store ptr %0, ptr %4, align 8
  %7 = getelementptr inbounds nuw i8, ptr %5, i64 32
  store i8 5, ptr %7, align 8
  %8 = getelementptr inbounds nuw i8, ptr %5, i64 33
  store i8 1, ptr %8, align 1
  store ptr %1, ptr %5, align 8
  %9 = getelementptr inbounds nuw i8, ptr %5, i64 8
  store i64 %2, ptr %9, align 8
  %10 = getelementptr inbounds nuw i8, ptr %6, i64 32
  store i16 257, ptr %10, align 8
  call void @_ZN4llvm9ViewGraphIPNS_18BlockFrequencyInfoEEEvRKT_RKNS_5TwineEbS8_NS_12GraphProgram4NameE(ptr noundef nonnull align 8 dereferenceable(8) %4, ptr noundef nonnull align 8 dereferenceable(34) %5, i1 noundef zeroext false, ptr noundef nonnull align 8 dereferenceable(34) %6, i32 noundef 0)
  ret void
}